; ModuleID = '60/68.c'
source_filename = "60/68.c"
target datalayout = "e-m:e-p270:32:32-p271:32:32-p272:64:64-i64:64-f80:128-n8:16:32:64-S128"
target triple = "x86_64-pc-linux-gnu"

@.str = private unnamed_addr constant [3 x i8] c"%d\00", align 1
@.str.1 = private unnamed_addr constant [7 x i8] c"%d %d\0A\00", align 1
@.str.2 = private unnamed_addr constant [6 x i8] c"empty\00", align 1

; Function Attrs: noinline nounwind uwtable
define dso_local void @main() #0 {
  %1 = alloca i32, align 4
  %2 = alloca i32, align 4
  %3 = alloca i32, align 4
  %4 = alloca i32, align 4
  store i32 0, i32* %3, align 4
  %5 = call i32 (i8*, ...) @__isoc99_scanf(i8* getelementptr inbounds ([3 x i8], [3 x i8]* @.str, i64 0, i64 0), i32* %1)
  store i32 3, i32* %4, align 4
  br label %6

6:                                                ; preds = %57, %0
  %7 = load i32, i32* %4, align 4
  %8 = load i32, i32* %1, align 4
  %9 = sub nsw i32 %8, 2
  %10 = icmp sle i32 %7, %9
  br i1 %10, label %11, label %60

11:                                               ; preds = %6
  store i32 2, i32* %2, align 4
  br label %12

12:                                               ; preds = %39, %11
  %13 = load i32, i32* %2, align 4
  %14 = sitofp i32 %13 to double
  %15 = load i32, i32* %4, align 4
  %16 = sitofp i32 %15 to double
  %17 = call double @sqrt(double %16) #3
  %18 = fcmp ole double %14, %17
  br i1 %18, label %19, label %42

19:                                               ; preds = %12
  %20 = load i32, i32* %4, align 4
  %21 = load i32, i32* %2, align 4
  %22 = srem i32 %20, %21
  %23 = icmp eq i32 %22, 0
  br i1 %23, label %37, label %24

24:                                               ; preds = %19
  %25 = load i32, i32* %4, align 4
  %26 = add nsw i32 %25, 2
  %27 = load i32, i32* %2, align 4
  %28 = srem i32 %26, %27
  %29 = icmp eq i32 %28, 0
  br i1 %29, label %37, label %30

30:                                               ; preds = %24
  %31 = load i32, i32* %4, align 4
  %32 = add nsw i32 %31, 2
  %33 = load i32, i32* %2, align 4
  %34 = add nsw i32 %33, 1
  %35 = srem i32 %32, %34
  %36 = icmp eq i32 %35, 0
  br i1 %36, label %37, label %38

37:                                               ; preds = %30, %24, %19
  br label %42

38:                                               ; preds = %30
  br label %39

39:                                               ; preds = %38
  %40 = load i32, i32* %2, align 4
  %41 = add nsw i32 %40, 1
  store i32 %41, i32* %2, align 4
  br label %12

42:                                               ; preds = %37, %12
  %43 = load i32, i32* %2, align 4
  %44 = sitofp i32 %43 to double
  %45 = load i32, i32* %4, align 4
  %46 = sitofp i32 %45 to double
  %47 = call double @sqrt(double %46) #3
  %48 = fcmp ogt double %44, %47
  br i1 %48, label %49, label %56

49:                                               ; preds = %42
  %50 = load i32, i32* %4, align 4
  %51 = load i32, i32* %4, align 4
  %52 = add nsw i32 %51, 2
  %53 = call i32 (i8*, ...) @printf(i8* getelementptr inbounds ([7 x i8], [7 x i8]* @.str.1, i64 0, i64 0), i32 %50, i32 %52)
  %54 = load i32, i32* %3, align 4
  %55 = add nsw i32 %54, 1
  store i32 %55, i32* %3, align 4
  br label %56

56:                                               ; preds = %49, %42
  br label %57

57:                                               ; preds = %56
  %58 = load i32, i32* %4, align 4
  %59 = add nsw i32 %58, 2
  store i32 %59, i32* %4, align 4
  br label %6

60:                                               ; preds = %6
  %61 = load i32, i32* %3, align 4
  %62 = icmp eq i32 %61, 0
  br i1 %62, label %63, label %65

63:                                               ; preds = %60
  %64 = call i32 (i8*, ...) @printf(i8* getelementptr inbounds ([6 x i8], [6 x i8]* @.str.2, i64 0, i64 0))
  br label %65

65:                                               ; preds = %63, %60
  ret void
}

declare dso_local i32 @__isoc99_scanf(i8*, ...) #1

; Function Attrs: nounwind
declare dso_local double @sqrt(double) #2

declare dso_local i32 @printf(i8*, ...) #1


!llvm.module.flags = !{!0}
!llvm.ident = !{!1}

!0 = !{i32 1, !"wchar_size", i32 4}
!1 = !{!"clang version 10.0.0-4ubuntu1 "}
