; ModuleID = 'source-C-CXX/59/68.c'
source_filename = "source-C-CXX/59/68.c"
target datalayout = "e-m:e-p270:32:32-p271:32:32-p272:64:64-i64:64-f80:128-n8:16:32:64-S128"
target triple = "x86_64-pc-linux-gnu"

@.str = private unnamed_addr constant [3 x i8] c"%d\00", align 1
@.str.1 = private unnamed_addr constant [7 x i8] c"%d %d\0A\00", align 1
@.str.2 = private unnamed_addr constant [6 x i8] c"empty\00", align 1

; Function Attrs: nofree nounwind sspstrong uwtable
define dso_local void @main() local_unnamed_addr #0 {
  %1 = alloca i32, align 4
  %2 = bitcast i32* %1 to i8*
  call void @llvm.lifetime.start.p0i8(i64 4, i8* nonnull %2) #4
  %3 = call i32 (i8*, ...) @__isoc99_scanf(i8* getelementptr inbounds ([3 x i8], [3 x i8]* @.str, i64 0, i64 0), i32* nonnull %1)
  %4 = load i32, i32* %1, align 4, !tbaa !5
  %5 = icmp slt i32 %4, 5
  br i1 %5, label %39, label %6

6:                                                ; preds = %0, %32
  %7 = phi i32 [ %9, %32 ], [ 3, %0 ]
  %8 = phi i32 [ %33, %32 ], [ 0, %0 ]
  %9 = add nuw nsw i32 %7, 2
  %10 = sitofp i32 %7 to double
  br label %11

11:                                               ; preds = %6, %22
  %12 = phi i32 [ %23, %22 ], [ 2, %6 ]
  %13 = sitofp i32 %12 to double
  %14 = call double @sqrt(double %10) #4
  %15 = fcmp ult double %14, %13
  br i1 %15, label %26, label %16

16:                                               ; preds = %11
  %17 = urem i32 %7, %12
  %18 = icmp eq i32 %17, 0
  br i1 %18, label %26, label %19

19:                                               ; preds = %16
  %20 = urem i32 %9, %12
  %21 = icmp eq i32 %20, 0
  br i1 %21, label %26, label %22

22:                                               ; preds = %19
  %23 = add nuw nsw i32 %12, 1
  %24 = urem i32 %9, %23
  %25 = icmp eq i32 %24, 0
  br i1 %25, label %26, label %11, !llvm.loop !9

26:                                               ; preds = %16, %19, %22, %11
  %27 = call double @sqrt(double %10) #4
  %28 = fcmp olt double %27, %13
  br i1 %28, label %29, label %32

29:                                               ; preds = %26
  %30 = call i32 (i8*, ...) @printf(i8* nonnull dereferenceable(1) getelementptr inbounds ([7 x i8], [7 x i8]* @.str.1, i64 0, i64 0), i32 %7, i32 %9)
  %31 = add nsw i32 %8, 1
  br label %32

32:                                               ; preds = %26, %29
  %33 = phi i32 [ %31, %29 ], [ %8, %26 ]
  %34 = load i32, i32* %1, align 4, !tbaa !5
  %35 = add nsw i32 %34, -2
  %36 = icmp sgt i32 %9, %35
  br i1 %36, label %37, label %6, !llvm.loop !11

37:                                               ; preds = %32
  %38 = icmp eq i32 %33, 0
  br i1 %38, label %39, label %41

39:                                               ; preds = %0, %37
  %40 = call i32 (i8*, ...) @printf(i8* nonnull dereferenceable(1) getelementptr inbounds ([6 x i8], [6 x i8]* @.str.2, i64 0, i64 0))
  br label %41

41:                                               ; preds = %39, %37
  call void @llvm.lifetime.end.p0i8(i64 4, i8* nonnull %2) #4
  ret void
}

; Function Attrs: argmemonly mustprogress nofree nosync nounwind willreturn
declare void @llvm.lifetime.start.p0i8(i64 immarg, i8* nocapture) #1

; Function Attrs: nofree nounwind
declare noundef i32 @__isoc99_scanf(i8* nocapture noundef readonly, ...) local_unnamed_addr #2

; Function Attrs: mustprogress nofree nounwind willreturn
declare double @sqrt(double) local_unnamed_addr #3

; Function Attrs: nofree nounwind
declare noundef i32 @printf(i8* nocapture noundef readonly, ...) local_unnamed_addr #2

; Function Attrs: argmemonly mustprogress nofree nosync nounwind willreturn
declare void @llvm.lifetime.end.p0i8(i64 immarg, i8* nocapture) #1


!llvm.module.flags = !{!0, !1, !2, !3}
!llvm.ident = !{!4}

!0 = !{i32 1, !"wchar_size", i32 4}
!1 = !{i32 7, !"PIC Level", i32 2}
!2 = !{i32 7, !"PIE Level", i32 2}
!3 = !{i32 7, !"uwtable", i32 1}
!4 = !{!"clang version 13.0.0"}
!5 = !{!6, !6, i64 0}
!6 = !{!"int", !7, i64 0}
!7 = !{!"omnipotent char", !8, i64 0}
!8 = !{!"Simple C/C++ TBAA"}
!9 = distinct !{!9, !10}
!10 = !{!"llvm.loop.mustprogress"}
!11 = distinct !{!11, !10}
